target datalayout = "e-m:e-p270:32:32-p271:32:32-p272:64:64-i64:64-i128:128-f80:128-n8:16:32:64-S128"
target triple = "x86_64-unknown-linux-gnu"

%"class.sat::literal" = type { i32 }
%"class.sat::cut_simplifier" = type { ptr, %"struct.sat::cut_simplifier::stats", %"struct.sat::cut_simplifier::config", %"class.sat::aig_cuts", i32, %class.svector, ptr, %class.hashtable }
%"struct.sat::cut_simplifier::stats" = type { i32, i32, i32, i32, i32, i32, i32, i32, i32, i32, i32, i32, i32 }
%"struct.sat::cut_simplifier::config" = type { i8, i8, i8, i8, i8, i8, i8 }
%"class.sat::aig_cuts" = type { %class.random_gen, %"struct.sat::aig_cuts::config", %class.vector, %class.svector, %class.region, %"class.sat::cut_set", %"class.sat::cut_set", %"class.sat::cut_set", %class.vector.1, %class.svector.2, %class.svector.2, i32, i32, %class.svector.4, i32, %"class.std::function", %"class.std::function", %"class.std::function.6", %"class.std::function.6", %class.svector, [6 x ptr], [6 x i64], [6 x %"class.sat::literal"] }
%class.random_gen = type { i32 }
%"struct.sat::aig_cuts::config" = type <{ i32, i32, i32, i8, [3 x i8] }>
%class.vector = type { ptr }
%class.region = type { ptr, ptr, ptr, ptr, ptr }
%"class.sat::cut_set" = type { i32, ptr, i32, i32, ptr }
%class.vector.1 = type { ptr }
%class.svector.2 = type { %class.vector.3 }
%class.vector.3 = type { ptr }
%class.svector.4 = type { %class.vector.5 }
%class.vector.5 = type { ptr }
%"class.std::function" = type { %"class.std::_Function_base", ptr }
%"class.std::_Function_base" = type { %"union.std::_Any_data", ptr }
%"union.std::_Any_data" = type { %"union.std::_Nocopy_types" }
%"union.std::_Nocopy_types" = type { { i64, i64 } }
%"class.std::function.6" = type { %"class.std::_Function_base", ptr }
%class.svector = type { %class.vector.0 }
%class.vector.0 = type { ptr }
%class.hashtable = type { %class.core_hashtable.base, [4 x i8] }
%class.core_hashtable.base = type <{ ptr, i32, i32, i32 }>
%class.anon.65 = type { ptr }

; Function Attrs: mustprogress uwtable
define internal void @"_ZZN3sat14cut_simplifier11clauses2aigEvENK3$_1clENS_7literalES2_S2_S2_"(ptr noundef nonnull align 8 dereferenceable(8) %this, i32 %head.coerce, i32 %c.coerce, i32 %t.coerce, i32 %e.coerce) #5 align 2 {
entry:
  %head = alloca %"class.sat::literal", align 4
  %c = alloca %"class.sat::literal", align 4
  %t = alloca %"class.sat::literal", align 4
  %e = alloca %"class.sat::literal", align 4
  %this.addr = alloca ptr, align 8
  %args = alloca [3 x %"class.sat::literal"], align 4
  %agg.tmp = alloca %"class.sat::literal", align 4
  %coerce.dive = getelementptr inbounds %"class.sat::literal", ptr %head, i32 0, i32 0
  store i32 %head.coerce, ptr %coerce.dive, align 4
  %coerce.dive1 = getelementptr inbounds %"class.sat::literal", ptr %c, i32 0, i32 0
  store i32 %c.coerce, ptr %coerce.dive1, align 4
  %coerce.dive2 = getelementptr inbounds %"class.sat::literal", ptr %t, i32 0, i32 0
  store i32 %t.coerce, ptr %coerce.dive2, align 4
  %coerce.dive3 = getelementptr inbounds %"class.sat::literal", ptr %e, i32 0, i32 0
  store i32 %e.coerce, ptr %coerce.dive3, align 4
  store ptr %this, ptr %this.addr, align 8
  %this4 = load ptr, ptr %this.addr, align 8
  %0 = getelementptr inbounds %class.anon.65, ptr %this4, i32 0, i32 0
  %1 = load ptr, ptr %0, align 8
  %arrayinit.begin = getelementptr inbounds [3 x %"class.sat::literal"], ptr %args, i64 0, i64 0
  call void @llvm.memcpy.p0.p0.i64(ptr align 4 %arrayinit.begin, ptr align 4 %c, i64 4, i1 false)
  %arrayinit.element = getelementptr inbounds %"class.sat::literal", ptr %arrayinit.begin, i64 1
  call void @llvm.memcpy.p0.p0.i64(ptr align 4 %arrayinit.element, ptr align 4 %t, i64 4, i1 false)
  %arrayinit.element5 = getelementptr inbounds %"class.sat::literal", ptr %arrayinit.element, i64 1
  call void @llvm.memcpy.p0.p0.i64(ptr align 4 %arrayinit.element5, ptr align 4 %e, i64 4, i1 false)
  %m_aig_cuts = getelementptr inbounds %"class.sat::cut_simplifier", ptr %1, i32 0, i32 3
  call void @llvm.memcpy.p0.p0.i64(ptr align 4 %agg.tmp, ptr align 4 %head, i64 4, i1 false)
  %arraydecay = getelementptr inbounds [3 x %"class.sat::literal"], ptr %args, i64 0, i64 0
  %coerce.dive6 = getelementptr inbounds %"class.sat::literal", ptr %agg.tmp, i32 0, i32 0
  %2 = load i32, ptr %coerce.dive6, align 4
  call void @_ZN3sat8aig_cuts8add_nodeENS_7literalENS_7bool_opEjPKS1_(ptr noundef nonnull align 8 dereferenceable(480) %m_aig_cuts, i32 %2, i32 noundef 2, i32 noundef 3, ptr noundef %arraydecay)
  %m_stats = getelementptr inbounds %"class.sat::cut_simplifier", ptr %1, i32 0, i32 1
  %m_xites = getelementptr inbounds %"struct.sat::cut_simplifier::stats", ptr %m_stats, i32 0, i32 8
  %3 = load i32, ptr %m_xites, align 8
  %inc = add i32 %3, 1
  store i32 %inc, ptr %m_xites, align 8
  ret void
}

; Function Attrs: mustprogress nounwind uwtable
define linkonce_odr hidden noundef ptr @_ZNKSt9_Any_data9_M_accessEv(ptr noundef nonnull align 8 dereferenceable(16) %this) #4 comdat align 2 {
entry:
  %this.addr = alloca ptr, align 8
  store ptr %this, ptr %this.addr, align 8
  %this1 = load ptr, ptr %this.addr, align 8
  %arrayidx = getelementptr inbounds [16 x i8], ptr %this1, i64 0, i64 0
  ret ptr %arrayidx
}

; Function Attrs: mustprogress uwtable
define internal void @"_ZSt13__invoke_implIvRZN3sat14cut_simplifier11clauses2aigEvE3$_1JNS0_7literalES4_S4_S4_EET_St14__invoke_otherOT0_DpOT1_"(ptr noundef nonnull align 8 dereferenceable(8) %__f, ptr noundef nonnull align 4 dereferenceable(4) %__args, ptr noundef nonnull align 4 dereferenceable(4) %__args1, ptr noundef nonnull align 4 dereferenceable(4) %__args3, ptr noundef nonnull align 4 dereferenceable(4) %__args5) #5 {
entry:
  %__f.addr = alloca ptr, align 8
  %__args.addr = alloca ptr, align 8
  %__args.addr2 = alloca ptr, align 8
  %__args.addr4 = alloca ptr, align 8
  %__args.addr6 = alloca ptr, align 8
  %agg.tmp = alloca %"class.sat::literal", align 4
  %agg.tmp7 = alloca %"class.sat::literal", align 4
  %agg.tmp8 = alloca %"class.sat::literal", align 4
  %agg.tmp9 = alloca %"class.sat::literal", align 4
  store ptr %__f, ptr %__f.addr, align 8
  store ptr %__args, ptr %__args.addr, align 8
  store ptr %__args1, ptr %__args.addr2, align 8
  store ptr %__args3, ptr %__args.addr4, align 8
  store ptr %__args5, ptr %__args.addr6, align 8
  %0 = load ptr, ptr %__f.addr, align 8
  %1 = load ptr, ptr %__args.addr, align 8
  call void @llvm.memcpy.p0.p0.i64(ptr align 4 %agg.tmp, ptr align 4 %1, i64 4, i1 false)
  %2 = load ptr, ptr %__args.addr2, align 8
  call void @llvm.memcpy.p0.p0.i64(ptr align 4 %agg.tmp7, ptr align 4 %2, i64 4, i1 false)
  %3 = load ptr, ptr %__args.addr4, align 8
  call void @llvm.memcpy.p0.p0.i64(ptr align 4 %agg.tmp8, ptr align 4 %3, i64 4, i1 false)
  %4 = load ptr, ptr %__args.addr6, align 8
  call void @llvm.memcpy.p0.p0.i64(ptr align 4 %agg.tmp9, ptr align 4 %4, i64 4, i1 false)
  %coerce.dive = getelementptr inbounds %"class.sat::literal", ptr %agg.tmp, i32 0, i32 0
  %5 = load i32, ptr %coerce.dive, align 4
  %coerce.dive10 = getelementptr inbounds %"class.sat::literal", ptr %agg.tmp7, i32 0, i32 0
  %6 = load i32, ptr %coerce.dive10, align 4
  %coerce.dive11 = getelementptr inbounds %"class.sat::literal", ptr %agg.tmp8, i32 0, i32 0
  %7 = load i32, ptr %coerce.dive11, align 4
  %coerce.dive12 = getelementptr inbounds %"class.sat::literal", ptr %agg.tmp9, i32 0, i32 0
  %8 = load i32, ptr %coerce.dive12, align 4
  call void @"_ZZN3sat14cut_simplifier11clauses2aigEvENK3$_1clENS_7literalES2_S2_S2_"(ptr noundef nonnull align 8 dereferenceable(8) %0, i32 %5, i32 %6, i32 %7, i32 %8)
  ret void
}

; Function Attrs: mustprogress nounwind uwtable
define internal noundef nonnull align 8 dereferenceable(8) ptr @"_ZNKSt9_Any_data9_M_accessIZN3sat14cut_simplifier11clauses2aigEvE3$_1EERKT_v"(ptr noundef nonnull align 8 dereferenceable(16) %this) #4 align 2 {
entry:
  %this.addr = alloca ptr, align 8
  store ptr %this, ptr %this.addr, align 8
  %this1 = load ptr, ptr %this.addr, align 8
  %call = call noundef ptr @_ZNKSt9_Any_data9_M_accessEv(ptr noundef nonnull align 8 dereferenceable(16) %this1) #3
  ret ptr %call
}

; Function Attrs: mustprogress uwtable
define internal void @"_ZSt10__invoke_rIvRZN3sat14cut_simplifier11clauses2aigEvE3$_1JNS0_7literalES4_S4_S4_EENSt9enable_ifIX16is_invocable_r_vIT_T0_DpT1_EES6_E4typeEOS7_DpOS8_"(ptr noundef nonnull align 8 dereferenceable(8) %__fn, ptr noundef nonnull align 4 dereferenceable(4) %__args, ptr noundef nonnull align 4 dereferenceable(4) %__args1, ptr noundef nonnull align 4 dereferenceable(4) %__args3, ptr noundef nonnull align 4 dereferenceable(4) %__args5) #5 {
entry:
  %__fn.addr = alloca ptr, align 8
  %__args.addr = alloca ptr, align 8
  %__args.addr2 = alloca ptr, align 8
  %__args.addr4 = alloca ptr, align 8
  %__args.addr6 = alloca ptr, align 8
  store ptr %__fn, ptr %__fn.addr, align 8
  store ptr %__args, ptr %__args.addr, align 8
  store ptr %__args1, ptr %__args.addr2, align 8
  store ptr %__args3, ptr %__args.addr4, align 8
  store ptr %__args5, ptr %__args.addr6, align 8
  %0 = load ptr, ptr %__fn.addr, align 8
  %1 = load ptr, ptr %__args.addr, align 8
  %2 = load ptr, ptr %__args.addr2, align 8
  %3 = load ptr, ptr %__args.addr4, align 8
  %4 = load ptr, ptr %__args.addr6, align 8
  call void @"_ZSt13__invoke_implIvRZN3sat14cut_simplifier11clauses2aigEvE3$_1JNS0_7literalES4_S4_S4_EET_St14__invoke_otherOT0_DpOT1_"(ptr noundef nonnull align 8 dereferenceable(8) %0, ptr noundef nonnull align 4 dereferenceable(4) %1, ptr noundef nonnull align 4 dereferenceable(4) %2, ptr noundef nonnull align 4 dereferenceable(4) %3, ptr noundef nonnull align 4 dereferenceable(4) %4)
  ret void
}

; Function Attrs: mustprogress nounwind uwtable
define internal noundef ptr @"_ZNSt14_Function_base13_Base_managerIZN3sat14cut_simplifier11clauses2aigEvE3$_1E14_M_get_pointerERKSt9_Any_data"(ptr noundef nonnull align 8 dereferenceable(16) %__source) #4 align 2 {
entry:
  %__source.addr = alloca ptr, align 8
  %__f = alloca ptr, align 8
  store ptr %__source, ptr %__source.addr, align 8
  %0 = load ptr, ptr %__source.addr, align 8
  %call = call noundef nonnull align 8 dereferenceable(8) ptr @"_ZNKSt9_Any_data9_M_accessIZN3sat14cut_simplifier11clauses2aigEvE3$_1EERKT_v"(ptr noundef nonnull align 8 dereferenceable(16) %0) #3
  store ptr %call, ptr %__f, align 8
  %1 = load ptr, ptr %__f, align 8
  ret ptr %1
}

; Function Attrs: mustprogress uwtable
define internal void @"_ZNSt17_Function_handlerIFvN3sat7literalES1_S1_S1_EZNS0_14cut_simplifier11clauses2aigEvE3$_1E9_M_invokeERKSt9_Any_dataOS1_S9_S9_S9_"(ptr noundef nonnull align 8 dereferenceable(16) %__functor, ptr noundef nonnull align 4 dereferenceable(4) %__args, ptr noundef nonnull align 4 dereferenceable(4) %__args1, ptr noundef nonnull align 4 dereferenceable(4) %__args3, ptr noundef nonnull align 4 dereferenceable(4) %__args5) #5 align 2 {
entry:
  %__functor.addr = alloca ptr, align 8
  %__args.addr = alloca ptr, align 8
  %__args.addr2 = alloca ptr, align 8
  %__args.addr4 = alloca ptr, align 8
  %__args.addr6 = alloca ptr, align 8
  store ptr %__functor, ptr %__functor.addr, align 8
  store ptr %__args, ptr %__args.addr, align 8
  store ptr %__args1, ptr %__args.addr2, align 8
  store ptr %__args3, ptr %__args.addr4, align 8
  store ptr %__args5, ptr %__args.addr6, align 8
  %0 = load ptr, ptr %__functor.addr, align 8
  %call = call noundef ptr @"_ZNSt14_Function_base13_Base_managerIZN3sat14cut_simplifier11clauses2aigEvE3$_1E14_M_get_pointerERKSt9_Any_data"(ptr noundef nonnull align 8 dereferenceable(16) %0) #3
  %1 = load ptr, ptr %__args.addr, align 8
  %2 = load ptr, ptr %__args.addr2, align 8
  %3 = load ptr, ptr %__args.addr4, align 8
  %4 = load ptr, ptr %__args.addr6, align 8
  call void @"_ZSt10__invoke_rIvRZN3sat14cut_simplifier11clauses2aigEvE3$_1JNS0_7literalES4_S4_S4_EENSt9enable_ifIX16is_invocable_r_vIT_T0_DpT1_EES6_E4typeEOS7_DpOS8_"(ptr noundef nonnull align 8 dereferenceable(8) %call, ptr noundef nonnull align 4 dereferenceable(4) %1, ptr noundef nonnull align 4 dereferenceable(4) %2, ptr noundef nonnull align 4 dereferenceable(4) %3, ptr noundef nonnull align 4 dereferenceable(4) %4)
  ret void
}