; Function Attrs: mustprogress uwtable
define internal void @"_ZNSt17_Function_handlerIFvN3sat7literalES1_S1_S1_EZNS0_14cut_simplifier11clauses2aigEvE3$_1E9_M_invokeERKSt9_Any_dataOS1_S9_S9_S9_"(ptr nocapture noundef nonnull readonly align 8 dereferenceable(16) %__functor, ptr nocapture noundef nonnull readonly align 4 dereferenceable(4) %__args, ptr nocapture noundef nonnull readonly align 4 dereferenceable(4) %__args1, ptr nocapture noundef nonnull readonly align 4 dereferenceable(4) %__args3, ptr nocapture noundef nonnull readonly align 4 dereferenceable(4) %__args5) #3 align 2 {
entry:
  %args.i.i.i = alloca [3 x %"class.sat::literal"], align 4
  %call.val = load ptr, ptr %__functor, align 8
  %__args.val = load i32, ptr %__args, align 4
  %__args1.val = load i32, ptr %__args1, align 4
  %__args3.val = load i32, ptr %__args3, align 4
  %__args5.val = load i32, ptr %__args5, align 4
  call void @llvm.lifetime.start.p0(i64 12, ptr nonnull %args.i.i.i)
  store i32 %__args1.val, ptr %args.i.i.i, align 4
  %arrayinit.element.i.i.i = getelementptr inbounds i8, ptr %args.i.i.i, i64 4
  store i32 %__args3.val, ptr %arrayinit.element.i.i.i, align 4
  %arrayinit.element5.i.i.i = getelementptr inbounds i8, ptr %args.i.i.i, i64 8
  store i32 %__args5.val, ptr %arrayinit.element5.i.i.i, align 4
  %m_aig_cuts.i.i.i = getelementptr inbounds i8, ptr %call.val, i64 72
  call void @_ZN3sat8aig_cuts8add_nodeENS_7literalENS_7bool_opEjPKS1_(ptr noundef nonnull align 8 dereferenceable(480) %m_aig_cuts.i.i.i, i32 %__args.val, i32 noundef 2, i32 noundef 3, ptr noundef nonnull %args.i.i.i)
  %m_xites.i.i.i = getelementptr inbounds i8, ptr %call.val, i64 40
  %0 = load i32, ptr %m_xites.i.i.i, align 8
  %inc.i.i.i = add i32 %0, 1
  store i32 %inc.i.i.i, ptr %m_xites.i.i.i, align 8
  call void @llvm.lifetime.end.p0(i64 12, ptr nonnull %args.i.i.i)
  ret void
}